issuer :/C=AU/O=MiniPKI/CN=Certificate Authority
subject:/C=AU/O=DemoCorp/OU=Corporate/OU=Information/CN=Marjorie SIMPER
serial :0A

Certificate:
    Data:
        Version: 1 (0x0)
        Serial Number: 10 (0xa)
        Signature Algorithm: md5WithRSAEncryption
        Issuer: C=AU, O=MiniPKI, CN=Certificate Authority
        Validity
            Not Before: Jun  6 06:11:56 2000 GMT
            Not After : Jun  5 06:11:56 2005 GMT
        Subject: C=AU, O=DemoCorp, OU=Corporate, OU=Information, CN=Marjorie SIMPER
        Subject Public Key Info:
            Public Key Algorithm: rsaEncryption
            RSA Public Key: (1024 bit)
                Modulus (1024 bit):
                    00:a1:52:bd:90:cb:05:9b:df:f0:57:13:88:4a:46:
                    e5:34:91:0f:55:a0:bc:ad:3c:ad:25:7e:39:04:ab:
                    e3:37:d2:7f:63:5a:24:bd:4b:31:38:30:d3:0d:4e:
                    a4:10:98:54:15:2f:bb:37:90:fa:4e:de:c4:21:46:
                    7c:a7:7d:4f:ea:8c:0f:f1:21:5a:0c:c0:e4:79:b0:
                    7e:59:92:2b:95:57:2b:5f:84:47:6f:b5:14:01:39:
                    c5:8e:7c:c6:7e:87:e1:b3:31:ce:7a:89:a0:f5:18:
                    bb:f8:8c:6c:5f:6c:61:5b:48:60:92:6e:87:3f:b6:
                    05:79:90:62:fa:c8:33:13:41
                Exponent: 65537 (0x10001)
    Signature Algorithm: md5WithRSAEncryption
        60:db:23:54:5b:10:d3:98:c1:c1:af:06:f9:9d:36:23:15:3a:
        21:20:12:d8:cd:68:22:67:e8:01:f4:de:75:ad:23:e9:af:2a:
        45:51:f9:17:62:0e:8b:35:7a:c6:fb:67:c1:37:e0:ec:42:38:
        be:9c:6d:85:ce:fa:7c:98:e5:ab:80:21:a9:87:fb:5f:40:34:
        97:a6:dd:1f:50:ee:c4:40:f5:ab:d9:12:7f:56:47:04:2e:01:
        b1:03:49:e0:fb:18:a9:a3:d1:73:50:a3:76:72:b1:1c:5f:7f:
        25:d3:e6:e9:ec:27:ef:11:c3:61:09:9b:1c:4b:97:09:eb:d0:
        44:ba

-----BEGIN CERTIFICATE-----
MIICEjCCAXsCAQowDQYJKoZIhvcNAQEEBQAwPzELMAkGA1UEBhMCQVUxEDAOBgNV
BAoTB01pbmlQS0kxHjAcBgNVBAMTFUNlcnRpZmljYXRlIEF1dGhvcml0eTAeFw0w
MDA2MDYwNjExNTZaFw0wNTA2MDUwNjExNTZaMGQxCzAJBgNVBAYTAkFVMREwDwYD
VQQKEwhEZW1vQ29ycDESMBAGA1UECxMJQ29ycG9yYXRlMRQwEgYDVQQLEwtJbmZv
cm1hdGlvbjEYMBYGA1UEAxMPTWFyam9yaWUgU0lNUEVSMIGfMA0GCSqGSIb3DQEB
AQUAA4GNADCBiQKBgQChUr2QywWb3/BXE4hKRuU0kQ9VoLytPK0lfjkEq+M30n9j
WiS9SzE4MNMNTqQQmFQVL7s3kPpO3sQhRnynfU/qjA/xIVoMwOR5sH5ZkiuVVytf
hEdvtRQBOcWOfMZ+h+GzMc56iaD1GLv4jGxfbGFbSGCSboc/tgV5kGL6yDMTQQID
AQABMA0GCSqGSIb3DQEBBAUAA4GBAGDbI1RbENOYwcGvBvmdNiMVOiEgEtjNaCJn
6AH03nWtI+mvKkVR+RdiDos1esb7Z8E34OxCOL6cbYXO+nyY5auAIamH+19ANJem
3R9Q7sRA9avZEn9WRwQuAbEDSeD7GKmj0XNQo3ZysRxffyXT5unsJ+8Rw2EJmxxL
lwnr0ES6
-----END CERTIFICATE-----

